target datalayout = "e-m:e-p270:32:32-p271:32:32-p272:64:64-i64:64-i128:128-f80:128-n8:16:32:64-S128"
target triple = "x86_64-pc-linux-gnu"

%struct.SlruCtlData = type { ptr, i16, i8, i32, ptr, [64 x i8] }

; Function Attrs: nounwind uwtable
define internal zeroext i1 @SlruMayDeleteSegment(ptr noundef %0, i64 noundef %1, i64 noundef %2) #0 {
  %4 = alloca ptr, align 8
  %5 = alloca i64, align 8
  %6 = alloca i64, align 8
  %7 = alloca i64, align 8
  store ptr %0, ptr %4, align 8
  store i64 %1, ptr %5, align 8
  store i64 %2, ptr %6, align 8
  call void @llvm.lifetime.start.p0(i64 8, ptr %7) #9
  %8 = load i64, ptr %5, align 8
  %9 = add i64 %8, 32
  %10 = sub i64 %9, 1
  store i64 %10, ptr %7, align 8
  %11 = load ptr, ptr %4, align 8
  %12 = getelementptr inbounds nuw %struct.SlruCtlData, ptr %11, i32 0, i32 4
  %13 = load ptr, ptr %12, align 8
  %14 = load i64, ptr %5, align 8
  %15 = load i64, ptr %6, align 8
  %16 = call zeroext i1 %13(i64 noundef %14, i64 noundef %15)
  br i1 %16, label %17, label %24

17:                                               ; preds = %3
  %18 = load ptr, ptr %4, align 8
  %19 = getelementptr inbounds nuw %struct.SlruCtlData, ptr %18, i32 0, i32 4
  %20 = load ptr, ptr %19, align 8
  %21 = load i64, ptr %7, align 8
  %22 = load i64, ptr %6, align 8
  %23 = call zeroext i1 %20(i64 noundef %21, i64 noundef %22)
  br label %24

24:                                               ; preds = %17, %3
  %25 = phi i1 [ false, %3 ], [ %23, %17 ]
  call void @llvm.lifetime.end.p0(i64 8, ptr %7) #9
  ret i1 %25
}

; Function Attrs: nounwind uwtable
define dso_local zeroext i1 @SlruScanDirCbReportPresence(ptr noundef %0, ptr noundef %1, i64 noundef %2, ptr noundef %3) #0 {
  %5 = alloca i1, align 1
  %6 = alloca ptr, align 8
  %7 = alloca ptr, align 8
  %8 = alloca i64, align 8
  %9 = alloca ptr, align 8
  %10 = alloca i64, align 8
  %11 = alloca i32, align 4
  store ptr %0, ptr %6, align 8
  store ptr %1, ptr %7, align 8
  store i64 %2, ptr %8, align 8
  store ptr %3, ptr %9, align 8
  call void @llvm.lifetime.start.p0(i64 8, ptr %10) #9
  %12 = load ptr, ptr %9, align 8
  %13 = load i64, ptr %12, align 8
  store i64 %13, ptr %10, align 8
  %14 = load ptr, ptr %6, align 8
  %15 = load i64, ptr %8, align 8
  %16 = load i64, ptr %10, align 8
  %17 = call zeroext i1 @SlruMayDeleteSegment(ptr noundef %14, i64 noundef %15, i64 noundef %16)
  br i1 %17, label %18, label %19

18:                                               ; preds = %4
  store i1 true, ptr %5, align 1
  store i32 1, ptr %11, align 4
  br label %20

19:                                               ; preds = %4
  store i1 false, ptr %5, align 1
  store i32 1, ptr %11, align 4
  br label %20

20:                                               ; preds = %19, %18
  call void @llvm.lifetime.end.p0(i64 8, ptr %10) #9
  %21 = load i1, ptr %5, align 1
  ret i1 %21
}