; Function Attrs: nounwind uwtable
define dso_local zeroext i1 @SlruScanDirCbReportPresence(ptr noundef readonly captures(none) %0, ptr noundef readnone captures(none) %1, i64 noundef %2, ptr noundef readonly captures(none) %3) local_unnamed_addr #3 {
  %5 = load i64, ptr %3, align 8
  %6 = getelementptr inbounds nuw i8, ptr %0, i64 16
  %7 = load ptr, ptr %6, align 8
  %8 = tail call zeroext i1 %7(i64 noundef %2, i64 noundef %5) #15
  br i1 %8, label %9, label %SlruMayDeleteSegment.exit

9:                                                ; preds = %4
  %10 = add i64 %2, 31
  %11 = load ptr, ptr %6, align 8
  %12 = tail call zeroext i1 %11(i64 noundef %10, i64 noundef %5) #15
  br label %SlruMayDeleteSegment.exit

SlruMayDeleteSegment.exit:                        ; preds = %4, %9
  %13 = phi i1 [ false, %4 ], [ %12, %9 ]
  ret i1 %13
}